; Function Attrs: mustprogress nounwind uwtable
define void @_ZN18OpenImageIO_v2_6_08Filter2D7destroyEPS0_(ptr noundef %filt) local_unnamed_addr #9 align 2 {
entry:
  %isnull = icmp eq ptr %filt, null
  br i1 %isnull, label %delete.end, label %delete.notnull

delete.notnull:                                   ; preds = %entry
  %vtable = load ptr, ptr %filt, align 8
  %vfn = getelementptr inbounds i8, ptr %vtable, i64 8
  %0 = load ptr, ptr %vfn, align 8
  tail call void %0(ptr noundef nonnull align 8 dereferenceable(16) %filt) #15
  br label %delete.end

delete.end:                                       ; preds = %delete.notnull, %entry
  ret void
}